target datalayout = "e-m:e-p270:32:32-p271:32:32-p272:64:64-i64:64-i128:128-f80:128-n8:16:32:64-S128"
target triple = "x86_64-pc-linux-gnu"

%struct._expr = type { i32, %union.anon.37, i32, i32, i32, i32 }
%union.anon.37 = type { %struct.anon.40 }
%struct.anon.40 = type { ptr, i32, ptr }
%struct.anon.48 = type { ptr, ptr, ptr }

@PyExc_ValueError = external global ptr, align 8
@.str.39 = private unnamed_addr constant [37 x i8] c"field 'key' is required for DictComp\00", align 1
@.str.40 = private unnamed_addr constant [39 x i8] c"field 'value' is required for DictComp\00", align 1

; Function Attrs: nounwind uwtable
define hidden ptr @_PyAST_DictComp(ptr noundef %0, ptr noundef %1, ptr noundef %2, i32 noundef %3, i32 noundef %4, i32 noundef %5, i32 noundef %6, ptr noundef %7) #0 {
  %9 = alloca ptr, align 8
  %10 = alloca ptr, align 8
  %11 = alloca ptr, align 8
  %12 = alloca ptr, align 8
  %13 = alloca i32, align 4
  %14 = alloca i32, align 4
  %15 = alloca i32, align 4
  %16 = alloca i32, align 4
  %17 = alloca ptr, align 8
  %18 = alloca ptr, align 8
  %19 = alloca i32, align 4
  store ptr %0, ptr %10, align 8, !tbaa !34
  store ptr %1, ptr %11, align 8, !tbaa !34
  store ptr %2, ptr %12, align 8, !tbaa !26
  store i32 %3, ptr %13, align 4, !tbaa !38
  store i32 %4, ptr %14, align 4, !tbaa !38
  store i32 %5, ptr %15, align 4, !tbaa !38
  store i32 %6, ptr %16, align 4, !tbaa !38
  store ptr %7, ptr %17, align 8, !tbaa !24
  call void @llvm.lifetime.start.p0(i64 8, ptr %18) #8
  %20 = load ptr, ptr %10, align 8, !tbaa !34
  %21 = icmp ne ptr %20, null
  br i1 %21, label %24, label %22

22:                                               ; preds = %8
  %23 = load ptr, ptr @PyExc_ValueError, align 8, !tbaa !13
  call void @PyErr_SetString(ptr noundef %23, ptr noundef @.str.39)
  store ptr null, ptr %9, align 8
  store i32 1, ptr %19, align 4
  br label %63

24:                                               ; preds = %8
  %25 = load ptr, ptr %11, align 8, !tbaa !34
  %26 = icmp ne ptr %25, null
  br i1 %26, label %29, label %27

27:                                               ; preds = %24
  %28 = load ptr, ptr @PyExc_ValueError, align 8, !tbaa !13
  call void @PyErr_SetString(ptr noundef %28, ptr noundef @.str.40)
  store ptr null, ptr %9, align 8
  store i32 1, ptr %19, align 4
  br label %63

29:                                               ; preds = %24
  %30 = load ptr, ptr %17, align 8, !tbaa !24
  %31 = call ptr @_PyArena_Malloc(ptr noundef %30, i64 noundef 48)
  store ptr %31, ptr %18, align 8, !tbaa !34
  %32 = load ptr, ptr %18, align 8, !tbaa !34
  %33 = icmp ne ptr %32, null
  br i1 %33, label %35, label %34

34:                                               ; preds = %29
  store ptr null, ptr %9, align 8
  store i32 1, ptr %19, align 4
  br label %63

35:                                               ; preds = %29
  %36 = load ptr, ptr %18, align 8, !tbaa !34
  %37 = getelementptr inbounds nuw %struct._expr, ptr %36, i32 0, i32 0
  store i32 11, ptr %37, align 8, !tbaa !47
  %38 = load ptr, ptr %10, align 8, !tbaa !34
  %39 = load ptr, ptr %18, align 8, !tbaa !34
  %40 = getelementptr inbounds nuw %struct._expr, ptr %39, i32 0, i32 1
  %41 = getelementptr inbounds nuw %struct.anon.48, ptr %40, i32 0, i32 0
  store ptr %38, ptr %41, align 8, !tbaa !21
  %42 = load ptr, ptr %11, align 8, !tbaa !34
  %43 = load ptr, ptr %18, align 8, !tbaa !34
  %44 = getelementptr inbounds nuw %struct._expr, ptr %43, i32 0, i32 1
  %45 = getelementptr inbounds nuw %struct.anon.48, ptr %44, i32 0, i32 1
  store ptr %42, ptr %45, align 8, !tbaa !21
  %46 = load ptr, ptr %12, align 8, !tbaa !26
  %47 = load ptr, ptr %18, align 8, !tbaa !34
  %48 = getelementptr inbounds nuw %struct._expr, ptr %47, i32 0, i32 1
  %49 = getelementptr inbounds nuw %struct.anon.48, ptr %48, i32 0, i32 2
  store ptr %46, ptr %49, align 8, !tbaa !21
  %50 = load i32, ptr %13, align 4, !tbaa !38
  %51 = load ptr, ptr %18, align 8, !tbaa !34
  %52 = getelementptr inbounds nuw %struct._expr, ptr %51, i32 0, i32 2
  store i32 %50, ptr %52, align 8, !tbaa !49
  %53 = load i32, ptr %14, align 4, !tbaa !38
  %54 = load ptr, ptr %18, align 8, !tbaa !34
  %55 = getelementptr inbounds nuw %struct._expr, ptr %54, i32 0, i32 3
  store i32 %53, ptr %55, align 4, !tbaa !50
  %56 = load i32, ptr %15, align 4, !tbaa !38
  %57 = load ptr, ptr %18, align 8, !tbaa !34
  %58 = getelementptr inbounds nuw %struct._expr, ptr %57, i32 0, i32 4
  store i32 %56, ptr %58, align 8, !tbaa !51
  %59 = load i32, ptr %16, align 4, !tbaa !38
  %60 = load ptr, ptr %18, align 8, !tbaa !34
  %61 = getelementptr inbounds nuw %struct._expr, ptr %60, i32 0, i32 5
  store i32 %59, ptr %61, align 4, !tbaa !52
  %62 = load ptr, ptr %18, align 8, !tbaa !34
  store ptr %62, ptr %9, align 8
  store i32 1, ptr %19, align 4
  br label %63

63:                                               ; preds = %35, %34, %27, %22
  call void @llvm.lifetime.end.p0(i64 8, ptr %18) #8
  %64 = load ptr, ptr %9, align 8
  ret ptr %64
}