; Function Attrs: nounwind uwtable
define hidden ptr @_PyAST_DictComp(ptr noundef %0, ptr noundef %1, ptr noundef %2, i32 noundef %3, i32 noundef %4, i32 noundef %5, i32 noundef %6, ptr noundef %7) local_unnamed_addr #0 {
  %.not = icmp eq ptr %0, null
  br i1 %.not, label %9, label %11

9:                                                ; preds = %8
  %10 = load ptr, ptr @PyExc_ValueError, align 8, !tbaa !4
  tail call void @PyErr_SetString(ptr noundef %10, ptr noundef nonnull @.str.39) #8
  br label %24

11:                                               ; preds = %8
  %.not23 = icmp eq ptr %1, null
  br i1 %.not23, label %12, label %14

12:                                               ; preds = %11
  %13 = load ptr, ptr @PyExc_ValueError, align 8, !tbaa !4
  tail call void @PyErr_SetString(ptr noundef %13, ptr noundef nonnull @.str.40) #8
  br label %24

14:                                               ; preds = %11
  %15 = tail call ptr @_PyArena_Malloc(ptr noundef %7, i64 noundef 48) #8
  %.not24 = icmp eq ptr %15, null
  br i1 %.not24, label %24, label %16

16:                                               ; preds = %14
  store i32 11, ptr %15, align 8, !tbaa !26
  %17 = getelementptr inbounds nuw i8, ptr %15, i64 8
  store ptr %0, ptr %17, align 8, !tbaa !9
  %18 = getelementptr inbounds nuw i8, ptr %15, i64 16
  store ptr %1, ptr %18, align 8, !tbaa !9
  %19 = getelementptr inbounds nuw i8, ptr %15, i64 24
  store ptr %2, ptr %19, align 8, !tbaa !9
  %20 = getelementptr inbounds nuw i8, ptr %15, i64 32
  store i32 %3, ptr %20, align 8, !tbaa !28
  %21 = getelementptr inbounds nuw i8, ptr %15, i64 36
  store i32 %4, ptr %21, align 4, !tbaa !29
  %22 = getelementptr inbounds nuw i8, ptr %15, i64 40
  store i32 %5, ptr %22, align 8, !tbaa !30
  %23 = getelementptr inbounds nuw i8, ptr %15, i64 44
  store i32 %6, ptr %23, align 4, !tbaa !31
  br label %24

24:                                               ; preds = %14, %16, %12, %9
  %.0 = phi ptr [ %15, %16 ], [ null, %12 ], [ null, %9 ], [ null, %14 ]
  ret ptr %.0
}